target datalayout = "e-m:e-p270:32:32-p271:32:32-p272:64:64-i64:64-i128:128-f80:128-n8:16:32:64-S128"
target triple = "x86_64-pc-linux-gnu"

%class.ElapsedTimeCriterion = type { %class.StopCriterion, i64, i64, i64 }
%class.StopCriterion = type { ptr }

; Function Attrs: mustprogress nounwind uwtable
define hidden noundef zeroext i1 @_ZN20ElapsedTimeCriterion4doneEv(ptr noundef nonnull align 8 dereferenceable(32) %0) unnamed_addr #6 align 2 {
  %2 = alloca ptr, align 8
  store ptr %0, ptr %2, align 8, !tbaa !278
  %3 = load ptr, ptr %2, align 8
  %4 = getelementptr inbounds nuw %class.ElapsedTimeCriterion, ptr %3, i32 0, i32 3
  %5 = load i64, ptr %4, align 8, !tbaa !284
  %6 = getelementptr inbounds nuw %class.ElapsedTimeCriterion, ptr %3, i32 0, i32 2
  %7 = load i64, ptr %6, align 8, !tbaa !283
  %8 = sub nsw i64 %5, %7
  %9 = getelementptr inbounds nuw %class.ElapsedTimeCriterion, ptr %3, i32 0, i32 1
  %10 = load i64, ptr %9, align 8, !tbaa !280
  %11 = icmp sge i64 %8, %10
  ret i1 %11
}